target datalayout = "e-m:e-p270:32:32-p271:32:32-p272:64:64-i64:64-i128:128-f80:128-n8:16:32:64-S128"
target triple = "x86_64-pc-linux-gnu"

%struct.H5O_linfo_t = type { i8, i8, i64, i64, i64, i64, i64 }

@H5_libterm_g = external global i8, align 1
@.str.1 = private unnamed_addr constant [101 x i8] c"generated/home/dtcxzyw/WorkSpace/Projects/compilers/llvm-opt-benchmark/bench/hdf5/hdf5/src/H5Pgcpl.c\00", align 1
@H5P_init_g = external global i8, align 1
@H5E_PLIST_g = external global i64, align 8
@H5E_BADVALUE_g = external global i64, align 8
@H5G_def_linfo_g = internal constant { i8, i8, [6 x i8], i64, i64, i64, i64, i64 } { i8 0, i8 0, [6 x i8] zeroinitializer, i64 0, i64 -1, i64 0, i64 -1, i64 -1 }, align 8
@__func__.H5P__gcrt_link_info_dec = private unnamed_addr constant [24 x i8] c"H5P__gcrt_link_info_dec\00", align 1
@.str.21 = private unnamed_addr constant [32 x i8] c"unsigned value can't be decoded\00", align 1

; Function Attrs: nounwind uwtable
define internal i32 @H5P__gcrt_link_info_dec(ptr noundef %0, ptr noundef %1) #0 {
  %3 = alloca ptr, align 8
  %4 = alloca ptr, align 8
  %5 = alloca ptr, align 8
  %6 = alloca ptr, align 8
  %7 = alloca i32, align 4
  %8 = alloca i32, align 4
  %9 = alloca i32, align 4
  %10 = alloca i8, align 1
  store ptr %0, ptr %3, align 8, !tbaa !34
  store ptr %1, ptr %4, align 8, !tbaa !34
  call void @llvm.lifetime.start.p0(i64 8, ptr %5) #6
  %11 = load ptr, ptr %4, align 8, !tbaa !34
  store ptr %11, ptr %5, align 8, !tbaa !44
  call void @llvm.lifetime.start.p0(i64 8, ptr %6) #6
  %12 = load ptr, ptr %3, align 8, !tbaa !34
  store ptr %12, ptr %6, align 8, !tbaa !37
  call void @llvm.lifetime.start.p0(i64 4, ptr %7) #6
  call void @llvm.lifetime.start.p0(i64 4, ptr %8) #6
  call void @llvm.lifetime.start.p0(i64 4, ptr %9) #6
  store i32 0, ptr %9, align 4, !tbaa !8
  call void @llvm.lifetime.start.p0(i64 1, ptr %10) #6
  store i8 0, ptr %10, align 1, !tbaa !10
  %13 = load i8, ptr @H5P_init_g, align 1, !tbaa !10, !range !12, !noundef !13
  %14 = trunc i8 %13 to i1
  br i1 %14, label %19, label %15

15:                                               ; preds = %2
  %16 = load i8, ptr @H5_libterm_g, align 1, !tbaa !10, !range !12, !noundef !13
  %17 = trunc i8 %16 to i1
  %18 = xor i1 %17, true
  br label %19

19:                                               ; preds = %15, %2
  %20 = phi i1 [ true, %2 ], [ %18, %15 ]
  %21 = xor i1 %20, true
  %22 = xor i1 %21, true
  %23 = zext i1 %22 to i32
  %24 = sext i32 %23 to i64
  %25 = call i64 @llvm.expect.i64(i64 %24, i64 1)
  %26 = icmp ne i64 %25, 0
  br i1 %26, label %27, label %122

27:                                               ; preds = %19
  %28 = load ptr, ptr %6, align 8, !tbaa !37
  %29 = load ptr, ptr %28, align 8, !tbaa !39
  %30 = getelementptr inbounds nuw i8, ptr %29, i32 1
  store ptr %30, ptr %28, align 8, !tbaa !39
  %31 = load i8, ptr %29, align 1, !tbaa !41
  %32 = zext i8 %31 to i32
  store i32 %32, ptr %8, align 4, !tbaa !8
  %33 = load i32, ptr %8, align 4, !tbaa !8
  %34 = zext i32 %33 to i64
  %35 = icmp ne i64 %34, 4
  br i1 %35, label %36, label %55

36:                                               ; preds = %27
  br label %37

37:                                               ; preds = %36
  br label %38

38:                                               ; preds = %37
  br label %39

39:                                               ; preds = %38
  %40 = load i64, ptr @H5E_PLIST_g, align 8, !tbaa !14
  %41 = load i64, ptr @H5E_BADVALUE_g, align 8, !tbaa !14
  %42 = call i32 (ptr, ptr, i32, i64, i64, ptr, ...) @H5E_printf_stack(ptr noundef @.str.1, ptr noundef @__func__.H5P__gcrt_link_info_dec, i32 noundef 626, i64 noundef %40, i64 noundef %41, ptr noundef @.str.21)
  br label %43

43:                                               ; preds = %39
  br label %44

44:                                               ; preds = %43
  store i8 1, ptr %10, align 1, !tbaa !10
  %45 = load i8, ptr %10, align 1, !tbaa !10, !range !12, !noundef !13
  %46 = trunc i8 %45 to i1
  %47 = zext i1 %46 to i8
  store i8 %47, ptr %10, align 1, !tbaa !10
  br label %48

48:                                               ; preds = %44
  br label %49

49:                                               ; preds = %48
  br label %50

50:                                               ; preds = %49
  store i32 -1, ptr %9, align 4, !tbaa !8
  br label %121

51:                                               ; No predecessors!
  br label %52

52:                                               ; preds = %51
  br label %53

53:                                               ; preds = %52
  br label %54

54:                                               ; preds = %53
  br label %55

55:                                               ; preds = %54, %27
  %56 = load ptr, ptr %5, align 8, !tbaa !44
  call void @llvm.memset.p0.i64(ptr align 8 %56, i8 0, i64 48, i1 false)
  %57 = load ptr, ptr %5, align 8, !tbaa !44
  call void @llvm.memcpy.p0.p0.i64(ptr align 8 %57, ptr align 8 @H5G_def_linfo_g, i64 48, i1 false), !tbaa.struct !46
  br label %58

58:                                               ; preds = %55
  br label %59

59:                                               ; preds = %58
  %60 = load ptr, ptr %6, align 8, !tbaa !37
  %61 = load ptr, ptr %60, align 8, !tbaa !39
  %62 = load i8, ptr %61, align 1, !tbaa !41
  %63 = zext i8 %62 to i32
  %64 = and i32 %63, 255
  store i32 %64, ptr %7, align 4, !tbaa !8
  %65 = load ptr, ptr %6, align 8, !tbaa !37
  %66 = load ptr, ptr %65, align 8, !tbaa !39
  %67 = getelementptr inbounds nuw i8, ptr %66, i32 1
  store ptr %67, ptr %65, align 8, !tbaa !39
  %68 = load ptr, ptr %6, align 8, !tbaa !37
  %69 = load ptr, ptr %68, align 8, !tbaa !39
  %70 = load i8, ptr %69, align 1, !tbaa !41
  %71 = zext i8 %70 to i32
  %72 = and i32 %71, 255
  %73 = shl i32 %72, 8
  %74 = load i32, ptr %7, align 4, !tbaa !8
  %75 = or i32 %74, %73
  store i32 %75, ptr %7, align 4, !tbaa !8
  %76 = load ptr, ptr %6, align 8, !tbaa !37
  %77 = load ptr, ptr %76, align 8, !tbaa !39
  %78 = getelementptr inbounds nuw i8, ptr %77, i32 1
  store ptr %78, ptr %76, align 8, !tbaa !39
  %79 = load ptr, ptr %6, align 8, !tbaa !37
  %80 = load ptr, ptr %79, align 8, !tbaa !39
  %81 = load i8, ptr %80, align 1, !tbaa !41
  %82 = zext i8 %81 to i32
  %83 = and i32 %82, 255
  %84 = shl i32 %83, 16
  %85 = load i32, ptr %7, align 4, !tbaa !8
  %86 = or i32 %85, %84
  store i32 %86, ptr %7, align 4, !tbaa !8
  %87 = load ptr, ptr %6, align 8, !tbaa !37
  %88 = load ptr, ptr %87, align 8, !tbaa !39
  %89 = getelementptr inbounds nuw i8, ptr %88, i32 1
  store ptr %89, ptr %87, align 8, !tbaa !39
  %90 = load ptr, ptr %6, align 8, !tbaa !37
  %91 = load ptr, ptr %90, align 8, !tbaa !39
  %92 = load i8, ptr %91, align 1, !tbaa !41
  %93 = zext i8 %92 to i32
  %94 = and i32 %93, 255
  %95 = shl i32 %94, 24
  %96 = load i32, ptr %7, align 4, !tbaa !8
  %97 = or i32 %96, %95
  store i32 %97, ptr %7, align 4, !tbaa !8
  %98 = load ptr, ptr %6, align 8, !tbaa !37
  %99 = load ptr, ptr %98, align 8, !tbaa !39
  %100 = getelementptr inbounds nuw i8, ptr %99, i32 1
  store ptr %100, ptr %98, align 8, !tbaa !39
  br label %101

101:                                              ; preds = %59
  br label %102

102:                                              ; preds = %101
  br label %103

103:                                              ; preds = %102
  br label %104

104:                                              ; preds = %103
  %105 = load i32, ptr %7, align 4, !tbaa !8
  %106 = and i32 %105, 1
  %107 = icmp ne i32 %106, 0
  %108 = select i1 %107, i32 1, i32 0
  %109 = icmp ne i32 %108, 0
  %110 = load ptr, ptr %5, align 8, !tbaa !44
  %111 = getelementptr inbounds nuw %struct.H5O_linfo_t, ptr %110, i32 0, i32 0
  %112 = zext i1 %109 to i8
  store i8 %112, ptr %111, align 8, !tbaa !31
  %113 = load i32, ptr %7, align 4, !tbaa !8
  %114 = and i32 %113, 2
  %115 = icmp ne i32 %114, 0
  %116 = select i1 %115, i32 1, i32 0
  %117 = icmp ne i32 %116, 0
  %118 = load ptr, ptr %5, align 8, !tbaa !44
  %119 = getelementptr inbounds nuw %struct.H5O_linfo_t, ptr %118, i32 0, i32 1
  %120 = zext i1 %117 to i8
  store i8 %120, ptr %119, align 1, !tbaa !33
  br label %121

121:                                              ; preds = %104, %50
  br label %122

122:                                              ; preds = %121, %19
  %123 = load i32, ptr %9, align 4, !tbaa !8
  call void @llvm.lifetime.end.p0(i64 1, ptr %10) #6
  call void @llvm.lifetime.end.p0(i64 4, ptr %9) #6
  call void @llvm.lifetime.end.p0(i64 4, ptr %8) #6
  call void @llvm.lifetime.end.p0(i64 4, ptr %7) #6
  call void @llvm.lifetime.end.p0(i64 8, ptr %6) #6
  call void @llvm.lifetime.end.p0(i64 8, ptr %5) #6
  ret i32 %123
}