; Function Attrs: nounwind uwtable
define internal range(i32 -1, 1) i32 @H5P__gcrt_link_info_dec(ptr noundef captures(none) %0, ptr noundef writeonly captures(none) %1) #0 {
  %3 = load i8, ptr @H5P_init_g, align 1, !tbaa !3, !range !7, !noundef !8
  %4 = trunc nuw i8 %3 to i1
  %5 = load i8, ptr @H5_libterm_g, align 1, !range !7
  %6 = trunc nuw i8 %5 to i1
  %7 = xor i1 %6, true
  %8 = select i1 %4, i1 true, i1 %7
  br i1 %8, label %9, label %24, !prof !9

9:                                                ; preds = %2
  %10 = load ptr, ptr %0, align 8, !tbaa !29
  %11 = getelementptr inbounds nuw i8, ptr %10, i64 1
  store ptr %11, ptr %0, align 8, !tbaa !29
  %12 = load i8, ptr %10, align 1, !tbaa !32
  %.not = icmp eq i8 %12, 4
  br i1 %.not, label %17, label %13

13:                                               ; preds = %9
  %14 = load i64, ptr @H5E_PLIST_g, align 8, !tbaa !10
  %15 = load i64, ptr @H5E_BADVALUE_g, align 8, !tbaa !10
  %16 = tail call i32 (ptr, ptr, i32, i64, i64, ptr, ...) @H5E_printf_stack(ptr noundef nonnull @.str.1, ptr noundef nonnull @__func__.H5P__gcrt_link_info_dec, i32 noundef 626, i64 noundef %14, i64 noundef %15, ptr noundef nonnull @.str.21) #7
  br label %24

17:                                               ; preds = %9
  tail call void @llvm.memcpy.p0.p0.i64(ptr noundef nonnull align 8 dereferenceable(48) %1, ptr noundef nonnull align 8 dereferenceable(48) @H5G_def_linfo_g, i64 48, i1 false), !tbaa.struct !35
  %18 = load ptr, ptr %0, align 8, !tbaa !29
  %19 = load i8, ptr %18, align 1, !tbaa !32
  %20 = getelementptr inbounds nuw i8, ptr %18, i64 4
  store ptr %20, ptr %0, align 8, !tbaa !29
  %21 = and i8 %19, 1
  store i8 %21, ptr %1, align 8, !tbaa !26
  %22 = getelementptr inbounds nuw i8, ptr %1, i64 1
  %23 = lshr i8 %19, 1
  %.lobit = and i8 %23, 1
  store i8 %.lobit, ptr %22, align 1, !tbaa !28
  br label %24

24:                                               ; preds = %13, %17, %2
  %.0 = phi i32 [ -1, %13 ], [ 0, %17 ], [ 0, %2 ]
  ret i32 %.0
}